; Function Attrs: nounwind uwtable
define internal fastcc range(i32 -2147483648, 2) i32 @process_head_service(ptr noundef %0, ptr noundef %1, ptr noundef %2, i64 noundef %3) unnamed_addr #0 {
  %5 = tail call fastcc i32 @process_head_file(ptr noundef %0, ptr noundef %1, ptr noundef %2, i64 noundef %3)
  %.not = icmp eq i32 %5, 0
  br i1 %.not, label %6, label %rar5_read_data_skip.exit.thread17

6:                                                ; preds = %4
  %7 = getelementptr inbounds nuw i8, ptr %1, i64 19400
  %8 = load i8, ptr %7, align 8
  %9 = or i8 %8, 2
  store i8 %9, ptr %7, align 8
  %10 = getelementptr i8, ptr %0, i64 2072
  %.val.i = load ptr, ptr %10, align 8, !tbaa !31
  %.val.val.i = load ptr, ptr %.val.i, align 8, !tbaa !46
  %11 = getelementptr inbounds nuw i8, ptr %.val.val.i, i64 44
  %12 = load i8, ptr %11, align 4
  %13 = and i8 %12, 1
  %.not.i = icmp eq i8 %13, 0
  br i1 %.not.i, label %32, label %14

14:                                               ; preds = %6
  %15 = getelementptr inbounds nuw i8, ptr %.val.val.i, i64 56
  %16 = load i8, ptr %15, align 8
  %17 = and i8 %16, 16
  %18 = icmp eq i8 %17, 0
  br i1 %18, label %.preheader, label %32

.preheader:                                       ; preds = %14
  %19 = getelementptr inbounds nuw i8, ptr %.val.val.i, i64 19368
  %20 = getelementptr inbounds nuw i8, ptr %.val.val.i, i64 8
  br label %21

21:                                               ; preds = %.preheader, %24
  %22 = load i64, ptr %19, align 8, !tbaa !67
  %23 = icmp slt i64 %22, 1
  br i1 %23, label %rar5_read_data_skip.exit.thread, label %24

24:                                               ; preds = %21
  %25 = load i32, ptr %20, align 8, !tbaa !56
  %26 = add nsw i32 %25, 1
  store i32 %26, ptr %20, align 8, !tbaa !56
  %27 = tail call i32 @rar5_read_data(ptr noundef %0, ptr noundef null, ptr noundef null, ptr noundef null)
  %.fr = freeze i32 %27
  %28 = load i32, ptr %20, align 8, !tbaa !56
  %29 = add nsw i32 %28, -1
  store i32 %29, ptr %20, align 8, !tbaa !56
  %30 = icmp slt i32 %.fr, 0
  %31 = icmp eq i32 %.fr, 1
  %or.cond.i = or i1 %30, %31
  br i1 %or.cond.i, label %rar5_read_data_skip.exit, label %21, !llvm.loop !68

32:                                               ; preds = %14, %6
  %33 = getelementptr inbounds nuw i8, ptr %.val.val.i, i64 19368
  %34 = load i64, ptr %33, align 8, !tbaa !67
  %35 = tail call i64 @__archive_read_consume(ptr noundef nonnull %0, i64 noundef %34) #15
  %36 = icmp eq i64 %34, %35
  br i1 %36, label %37, label %rar5_read_data_skip.exit.thread17

37:                                               ; preds = %32
  store i64 0, ptr %33, align 8, !tbaa !67
  br label %rar5_read_data_skip.exit.thread

rar5_read_data_skip.exit:                         ; preds = %24
  %.not12 = icmp eq i32 %.fr, 0
  br i1 %.not12, label %rar5_read_data_skip.exit.thread, label %rar5_read_data_skip.exit.thread17

rar5_read_data_skip.exit.thread:                  ; preds = %21, %37, %rar5_read_data_skip.exit
  br label %rar5_read_data_skip.exit.thread17

rar5_read_data_skip.exit.thread17:                ; preds = %32, %rar5_read_data_skip.exit.thread, %rar5_read_data_skip.exit, %4
  %.0 = phi i32 [ %5, %4 ], [ -10, %rar5_read_data_skip.exit.thread ], [ %.fr, %rar5_read_data_skip.exit ], [ -30, %32 ]
  ret i32 %.0
}